Profiling information for ::.vitis_design_wrapper_sim_wrapper.vitis_design_wrapper_i.vitis_design_i.ai_engine_0.inst.aie_logical.aie_xtlm.math_engine.array.tile_23_1.cm.proc.iss generated by Checkers U-2023.06#951b0e4fc8#240112 on Sun May 18 10:58:30 2025

Program being simulated:

    /home/wes_2025_r_verma/capstone_project/Versal-Linux-cmd-clean_0507/gemm_extended_dma_1_burst_opr/./Work/aie/23_0/Release/23_0

    Total cycle count           :              1213523
    Report cycle count          :              1213523
    Total instruction count     :                  370
    Report instruction count    :                  370
    Report instruction coverage :                   85.19%
    Total size in program memory:                 2654

Command used to generate this report: ::.vitis_design_wrapper_sim_wrapper.vitis_design_wrapper_i.vitis_design_i.ai_engine_0.inst.aie_logical.aie_xtlm.math_engine.array.tile_23_1.cm.proc.iss profile save profile_instr_23_0.txt -type instruction_profiling -user_cycle_count On -source_refs Off -asm_width 100 -asm_remove_white_space 1 -hide_instruction_bits 0 -wait_state_info 1 -relative_to_simulation 1

Function summary:

         Cycles % of total Instruction % of total % Coverage  Function                                           Relative cycle use in simulation
    ----------- ---------- ----------- ---------- ----------- -------------------------------------------------- --------------------------------------------------
         485825     40.03%         169     45.68%      96.57% main _main                                         ********************                              
             96      0.01%          96     25.95%     100.00% gemm _Z4gemmP12input_windowIaES1_P13output_windowI                                                   
             43      0.00%          43     11.62%     100.00% __cxa_finalize __cxa_finalize                                                                        
             37      0.00%          37     10.00%      50.68% _main_init _main_init                                                                                
             23      0.00%          23      6.22%      51.11% _fini _fini                                                                                          

Function detail: main _main

    Low PC                :        288
    High PC               :       1287
    Size in program memory:       1000
    Stack frame size      :        224
    Cycle-count           :               485825 (40.03%)
    Instruction-count     :                  169 (45.68%)
    Instruction Coverage  :                   96.57%

    PC         Instruction                                     Assembly                                                                                               Exe-count      Cycles User Count Wait states Relative cycle use within function                 Relative cycle use in simulation                   Relative wait state use within function            Relative wait state use in simulation             
    ---------- ----------------------------------------------- ---------------------------------------------------------------------------------------------------- ----------- ----------- ---------- ----------- -------------------------------------------------- -------------------------------------------------- -------------------------------------------------- --------------------------------------------------
           288 30 08 55 c6 08 70 42 04 f0 40 00 3f             MOV.s10 m0, #33; MOV.s9 r5, #48; MOV.s12 m1, #224; MOV.u20 ch1, #245760; NOP                                   1           1          0           0                                                                                                      
           300 08 92 1c c4 08 18 fc 04 d2 20 00 3f             PADDA [sp], m1; MOV.s9 r12, #32; MOV.s12 r14, #49; MOV.u20 cl0, #221184; NOP                                   1           1          0           0                                                                                                      
           312 00 00 11 c4 4f c6 42 04 c0 2a 80 3f             NOP; MOV.s9 r1, #34; MOV.s12 m1, #-116; MOV.u20 ch0, #207488; NOP                                              1           1          0           0                                                                                                      
           324 00 00 17 c4 6f ac 44 0d 1f fa 84 3f             NOP; MOV.s9 r7, #35; MOV.s12 m2, #-168; ST.SPIL ch1, [sp, #-88]; NOP                                           1           1          0           0                                                                                                      
           336 00 00 16 c0 0f 92 46 0d 1f f9 c4 3f             NOP; MOV.s9 r6, #0; MOV.s12 m3, #-220; ST.SPIL ch1, [sp, #-100]; NOP                                           1           1          0           0                                                                                                      
           348 48 03 d0 d8 ff 74 47 f7                         MOV.s12 r13, #512; ST.SPIL cl0, [sp, #-140]; NOP                                                               1           1          0           0                                                                                                      
           356 50 03 f0 d0 ff 40 47 f7                         MOV.s12 r15, #1024; ST.SPIL ch0, [sp, #-192]; NOP                                                              1           1          0           0                                                                                                      
           364 40 2c 18 03                                     NOP; MOV r8, sp                                                                                                1           1          0           0                                                                                                      
           368 80 00 00 f5 ff b8 47 f7                         NOP; ST.SPIL r5, [sp, #-72]; NOP                                                                               1           1          0           0                                                                                                      
           376 80 00 00 d8 ff 68 47 f7                         NOP; ST.SPIL cl0, [sp, #-152]; NOP                                                                             1           1          0           0                                                                                                      
           384 80 00 00 d0 ff 34 47 f7                         NOP; ST.SPIL ch0, [sp, #-204]; NOP                                                                             1           1          0           0                                                                                                      
           392 5b ff c0 00 00 3c 50 f7                         ST p7, [sp, #-16]; NOP; MOV p0, r8                                                                             1           1          0           0                                                                                                      
           400 80 00 00 fe ff bc 47 f7                         NOP; ST.SPIL r14, [sp, #-68]; NOP                                                                              1           1          0           0                                                                                                      
           408 80 00 00 fc ff 84 47 f7                         NOP; ST.SPIL r12, [sp, #-124]; NOP                                                                             1           1          0           0                                                                                                      
           416 80 00 00 f1 ff 50 47 f7                         NOP; ST.SPIL r1, [sp, #-176]; NOP                                                                              1           1          0           0                                                                                                      
           424 08 82 00 00 0b df f5 03 0e c6 8b df             PADDA [p0], m1; NOP; ST r11, [sp, #-24]; MOV.s12 r11, #48; MOV p7, p0                                          1           1          0           0                                                                                                      
           436 08 87 c0 00 0b d7 f7 00 0e 86 8a 5f             PADDA [p7], m3; NOP; ST r10, [sp, #-20]; MOV.s12 r10, #0; MOV p1, p0                                           1           1          0           0                                                                                                      
           448 08 84 40 00 15 a3 f9 04 ff a0 00 3f             PADDA [p1], m2; NOP; ST p0, [sp, #-28]; MOV.u20 r14, #253952; NOP                                              1           1          0           0                                                                                                      
           460 00 00 14 c4 55 d3 fe 04 c0 9e 00 3f             NOP; MOV.s9 r4, #34; ST r4, [sp, #-8]; MOV.u20 ch2, #204288; NOP                                               1           1          0           0                                                                                                      
           472 af 9f 90 4d 24 00 07 f7                         ST r12, [sp, #-56]; MOV.u20 cl1, #212992; NOP                                                                  1           1          0           0                                                                                                      
           480 80 00 00 e0 ff 88 47 f7                         NOP; ST.SPIL m0, [sp, #-120]; NOP                                                                              1           1          0           0                                                                                                      
           488 80 00 00 f7 ff 54 47 f7                         NOP; ST.SPIL r7, [sp, #-172]; NOP                                                                              1           1          0           0                                                                                                      
           496 80 00 00 fe ff ac 47 f7                         NOP; ST.SPIL r14, [sp, #-84]; NOP                                                                              1           1          0           0                                                                                                      
           504 80 00 00 d2 ff 78 47 f7                         NOP; ST.SPIL ch2, [sp, #-136]; NOP                                                                             1           1          0           0                                                                                                      
           512 80 00 00 d9 ff 44 47 f7                         NOP; ST.SPIL cl1, [sp, #-188]; NOP                                                                             1           1          0           0                                                                                                      
           520 80 00 00 fe ff a0 47 f7                         NOP; ST.SPIL r14, [sp, #-96]; NOP                                                                              1           1          0           0                                                                                                      
           528 80 00 00 d2 ff 6c 47 f7                         NOP; ST.SPIL ch2, [sp, #-148]; NOP                                                                             1           1          0           0                                                                                                      
           536 80 00 00 d9 ff 38 47 f7                         NOP; ST.SPIL cl1, [sp, #-200]; NOP                                                                             1           1          0           0                                                                                                      
           544 ae da 00 4e a2 36 07 f7                         ST r6, [p0]; MOV.u20 p0, #238432; NOP                                                                          1           1          0           0                                                                                                      
           552 ae da 08 03                                     NOP; ST r6, [p1]                                                                                               1           1          0           0                                                                                                      
           556 ae da 38 03                                     NOP; ST r6, [p7]                                                                                               1           1          0           0                                                                                                      
           560 80 00 00 d8 ff 70 47 f7                         NOP; ST.SPIL cl0, [sp, #-144]; NOP                                                                             1           1          0           0                                                                                                      
           568 80 00 00 d0 ff 3c 47 f7                         NOP; ST.SPIL ch0, [sp, #-196]; NOP                                                                             1           1          0           0                                                                                                      
           576 80 00 00 d1 ff a4 47 f7                         NOP; ST.SPIL ch1, [sp, #-92]; NOP                                                                              1           1          0           0                                                                                                      
           584 80 00 00 d8 ff 64 47 f7                         NOP; ST.SPIL cl0, [sp, #-156]; NOP                                                                             1           1          0           0                                                                                                      
           592 80 00 00 d0 ff 30 47 f7                         NOP; ST.SPIL ch0, [sp, #-208]; NOP                                                                             1           1          0           0                                                                                                      
           600 80 00 00 d1 ff 98 47 f7                         NOP; ST.SPIL ch1, [sp, #-104]; NOP                                                                             1           1          0           0                                                                                                      
           608 80 00 00 fd ff 7c 47 f7                         NOP; ST.SPIL r13, [sp, #-132]; NOP                                                                             1           1          0           0                                                                                                      
           616 80 00 00 ff ff 48 47 f7                         NOP; ST.SPIL r15, [sp, #-184]; NOP                                                                             1           1          0           0                                                                                                      
           624 80 00 00 fd ff b0 47 f7                         NOP; ST.SPIL r13, [sp, #-80]; NOP                                                                              1           1          0           0                                                                                                      
           632 80 00 00 fd ff 80 47 f7                         NOP; ST.SPIL r13, [sp, #-128]; NOP                                                                             1           1          0           0                                                                                                      
           640 40 07 f0 ff ff 4c 47 f7                         MOV.s12 r15, #1; ST.SPIL r15, [sp, #-180]; NOP                                                                 1           1          0           0                                                                                                      
           648 40 07 d0 fd ff b4 47 f7                         MOV.s12 r13, #1; ST.SPIL r13, [sp, #-76]; NOP                                                                  1           1          0           0                                                                                                      
           656 ae d4 40 03                                     NOP; ST r6, [p0], #4                                                                                           1           1          0           0                                                                                                      
           660 80 00 00 ee ff f4 47 f7                         NOP; ST.SPIL p6, [sp, #-12]; NOP                                                                               1           1          0           0                                                                                                      
           668 80 00 00 c8 ff fc 47 f7                         NOP; ST.SPIL lr, [sp, #-4]; NOP                                                                                1           1          0           0                                                                                                      
           676 80 00 00 ef ff dc 47 f7                         NOP; ST.SPIL p7, [sp, #-36]; NOP                                                                               1           1          0           0                                                                                                      
           684 80 00 00 e9 ff e0 47 f7                         NOP; ST.SPIL p1, [sp, #-32]; NOP                                                                               1           1          0           0                                                                                                      
           692 80 00 00 d8 ff 60 47 f7                         NOP; ST.SPIL cl0, [sp, #-160]; NOP                                                                             1           1          0           0                                                                                                      
           700 80 00 00 d0 ff 2c 47 f7                         NOP; ST.SPIL ch0, [sp, #-212]; NOP                                                                             1           1          0           0                                                                                                      
           708 00 00 00 00 10 00 00 0d 1f f9 44 3f             NOP; NOP; NOP; ST.SPIL ch1, [sp, #-108]; NOP                                                                   1           1          0           0                                                                                                      
           720 7e be 00 00 00 00 00 37                         LDA r14, [p0], #-4; NOP; NOP                                                                                   1           1          0           0                                                                                                      
           728 00 01                                           NOP                                                                                                            1           1          0           0                                                                                                      
           730 00 01                                           NOP                                                                                                            1           1          0           0                                                                                                      
           732 00 01                                           NOP                                                                                                            1           1          0           0                                                                                                      
           734 00 01                                           NOP                                                                                                            1           1          0           0                                                                                                      
           736 00 01                                           NOP                                                                                                            1           1          0           0                                                                                                      
           738 00 01                                           NOP                                                                                                            1           1          0           0                                                                                                      
           740 00 01                                           NOP                                                                                                            1           1          0           0                                                                                                      
           742 80 00 00 81 c0 4f 07 f7                         NOP; BEQZ r14,#1264; NOP                                                                                       1           1          0           0                                                                                                      
           750 80 00 00 c7 bb fb e7 f7                         NOP; LDA.SPIL p6, [sp, #-36]; NOP                                                                              1           1          0           0                                                                                                      
           758 80 00 00 c7 a7 fc 67 f7                         NOP; LDA.SPIL p1, [sp, #-32]; NOP                                                                              1           1          0           0                                                                                                      
           766 80 00 00 c7 bf fc e7 f7                         NOP; LDA.SPIL p7, [sp, #-28]; NOP                                                                              1           1          0           0                                                                                                      
           774 80 00 00 fe ff d8 47 f7                         NOP; ST.SPIL r14, [sp, #-40]; NOP                                                                              1           1          0           0                                                                                                      
           782 00 01                                           NOP                                                                                                            1           1          0           0                                                                                                      
           784 00 00 00 00 10 00 00 0e 8f fd 44 80 00 00 00 00 NOP; NOP; NOP; NOP; ST.SPIL p0, [sp, #-44]; NOP; NOP                                                           1           1          0           0                                                                                                      
           800 14 db 30 03                                     NOP; ACQ r11, #1, r13                                                                                          1           1          0           0                                                                                                      
           804 00 01                                           NOP                                                                                                            1           1          0           0                                                                                                      
           806 00 01                                           NOP                                                                                                            1           1          0           0                                                                                                      
           808 00 01                                           NOP                                                                                                            1           1          0           0                                                                                                      
           810 14 dc 30 03                                     NOP; ACQ r12, #1, r13                                                                                          1           1          0           0                                                                                                      
           814 00 01                                           NOP                                                                                                            1      485044          0           0 ************************************************** **************************************************
           816 00 01                                           NOP                                                                                                            1           1          0      485043                                                                                                       WWWWWWWWWWWWWWWWWWWWWWWWWWWWWWWWWWWWWWWWWWWWWWWWW  WWWWWWWWWWWWWWWWWWWWWWWWWWWWWWWWWWWWWWWWWWWWWWWWW 
           818 00 01                                           NOP                                                                                                            1           1          0           0                                                                                                      
           820 14 a4 30 03                                     NOP; ACQ r4, #1, r10                                                                                           1           1          0           0                                                                                                      
           824 80 00 00 a0 20 51 07 f7                         NOP; JAL #1296; NOP                                                                                            1           1          0           0                                                                                                      
           832 00 01                                           NOP                                                                                                            1           1          0           0                                                                                                      
           834 00 01                                           NOP                                                                                                            1           1          0           0                                                                                                      
           836 5f ff 40 00 00 37 54 f7                         ST r15, [sp, #-48]; NOP; MOV p2, p6                                                                            1           1          0           0                                                                                                      
           844 0d f4 18 03                                     NOP; MOV p0, p7                                                                                                1           1          0           0                                                                                                      
           848 00 00 00 00 10 00 00 0e 9f fc c4 80 00 00 00 00 NOP; NOP; NOP; NOP; ST.SPIL p1, [sp, #-52]; NOP; NOP                                                           1           1          0           0                                                                                                      
           864 40 07 c0 03                                     NOP; MOV.s12 r12, #1                                                                                           1           1          0           0                                                                                                      
           868 00 01                                           NOP                                                                                                            1           1          0           0                                                                                                      
           870 00 01                                           NOP                                                                                                            1           1          0           0                                                                                                      
           872 80 00 00 c7 f7 f9 67 f7                         NOP; LDA.SPIL r13, [sp, #-56]; NOP                                                                             1           1          0           0                                                                                                      
           880 00 01                                           NOP                                                                                                            1           1          0           0                                                                                                      
           882 00 01                                           NOP                                                                                                            1           1          0           0                                                                                                      
           884 16 ab 30 03                                     NOP; REL r11, #1, r10                                                                                          1           1          0           0                                                                                                      
           888 00 01                                           NOP                                                                                                            1           1          0           0                                                                                                      
           890 00 01                                           NOP                                                                                                            1           1          0           0                                                                                                      
           892 00 01                                           NOP                                                                                                            1           1          0           0                                                                                                      
           894 00 01                                           NOP                                                                                                            1           1          0           0                                                                                                      
           896 16 ad 30 03                                     NOP; REL r13, #1, r10                                                                                          1           1          0           0                                                                                                      
           900 00 01                                           NOP                                                                                                            1           1          0           0                                                                                                      
           902 00 01                                           NOP                                                                                                            1           1          0           0                                                                                                      
           904 00 01                                           NOP                                                                                                            1           1          0           0                                                                                                      
           906 16 c4 30 03                                     NOP; REL r4, #1, r12                                                                                           1           1          0           0                                                                                                      
           910 80 00 00 c7 c3 fa 67 f7                         NOP; LDA.SPIL r0, [sp, #-48]; NOP                                                                              1           1          0           0                                                                                                      
           918 80 00 00 c7 a7 f9 e7 f7                         NOP; LDA.SPIL p1, [sp, #-52]; NOP                                                                              1           1          0           0                                                                                                      
           926 00 01                                           NOP                                                                                                            1           1          0           0                                                                                                      
           928 80 00 00 4d fe 00 07 f7                         NOP; MOV.u20 r15, #221184; NOP                                                                                 1           1          0           0                                                                                                      
           936 80 00 00 4c d1 e0 07 f7                         NOP; MOV.u20 r4, #204288; NOP                                                                                  1           1          0           0                                                                                                      
           944 80 00 00 4f d4 00 07 f7                         NOP; MOV.u20 r5, #245760; NOP                                                                                  1           1          0           0                                                                                                      
           952 00 00 3e fe d0 00 00 04 fc 60 00 3f             NOP; LDB r14, [sp, #-40];NOP; MOV.u20 r1, #253952; NOP                                                         1           1          0           0                                                                                                      
           964 08 ad c0 00 10 00 00 04 ce 2a 80 3f             PADDA [p7], #24; NOP; NOP; MOV.u20 r8, #207488; NOP                                                            1           1          0           0                                                                                                      
           976 08 ad 80 00 03 ea 2a 04 dc 80 00 3f             PADDA [p6], #24; NOP; ITE_NEZ r5, r1, r5, r0; MOV.u20 r2, #212992; NOP                                         1           1          0           0                                                                                                      
           988 08 ac 4f 14 42 eb 77 b7                         PADDA [p1], #24; ST r5, [p7], #-12; ITE_EQZ r8, r8, r2, r0                                                     1           1          0           0                                                                                                      
           996 00 00 0f fa 7a f1 77 37                         NOP; ST r8, [p6], #-12; ITE_NEZ r15, r4, r15, r0                                                               1           1          0           0                                                                                                      
          1004 af f7 48 03                                     NOP; ST r15, [p1], #-12                                                                                        1           1          0           0                                                                                                      
          1008 5d 6f f8 10 79 90 ee f7                         ST r5, [p7], #-4; MOV.s12 r12, #32; MOV.s8 r7, #33                                                             1           1          0           0                                                                                                      
          1016 5e 2f e3 cf 99 80 74 f7                         ST r8, [p6], #-4; ITE_EQZ r12, r12, r7, r0; MOV.s8 r10, #0                                                     1           1          0           0                                                                                                      
          1024 00 00 1d f5 3a ff 7c b7                         NOP; ST r15, [p1], #-4; LT r7, r10, r14                                                                        1           1          0           0                                                                                                      
          1032 00 00 18 bf 72 eb 7b b7                         NOP; ST r5, [p7], #-8; SUB r14, r14, r7                                                                        1           1          0           0                                                                                                      
          1040 af 17 b0 91 c0 32 07 f7                         ST r8, [p6], #-8; BNEZ r14,#800; NOP                                                                           1           1          0           0                                                                                                      
          1048 af f7 88 03                                     NOP; ST r15, [p1], #-8                                                                                         1           1          0           0                                                                                                      
          1052 00 00 33 1e c8 18 7a 77                         NOP; MOV.s12 r13, #48; MOV.s8 r11, #49                                                                         1           1          0           0                                                                                                      
          1060 00 00 19 c4 60 00 00 7a f6 f2 2d 9f             NOP; MOV.s9 r9, #35; NOP; ITE_EQZ r11, r13, r11, r0; MOV.s8 r6, #34                                            1           1          0           0                                                                                                      
          1072 5f 3f 23 d2 c9 80 fa f7                         ST r12, [sp, #-56]; ITE_EQZ r4, r6, r9, r0; MOV.s8 r13, #1                                                     1           1          0           0                                                                                                      
          1080 00 00 18 86 fa fd fb 37                         NOP; ST r14, [sp, #-40]; SUB r15, r13, r0                                                                      1           1          0           0                                                                                                      
          1088 80 00 00 c7 a3 fa e7 f7                         NOP; LDA.SPIL p0, [sp, #-44]; NOP                                                                              1           1          0           0                                                                                                      
          1096 00 01                                           NOP                                                                                                            1           1          0           0                                                                                                      
          1098 00 01                                           NOP                                                                                                            1           1          0           0                                                                                                      
          1100 00 01                                           NOP                                                                                                            1           1          0           0                                                                                                      
          1102 00 01                                           NOP                                                                                                            1           1          0           0                                                                                                      
          1104 00 01                                           NOP                                                                                                            1           1          0           0                                                                                                      
          1106 00 01                                           NOP                                                                                                            1           1          0           0                                                                                                      
          1108 00 01                                           NOP                                                                                                            1           1          0           0                                                                                                      
          1110 00 01                                           NOP                                                                                                            1           1          0           0                                                                                                      
          1112 04 00 20 03                                     NOP; EVENT #2                                                                                                  1           1          0           0                                                                                                      
          1116 00 01                                           NOP                                                                                                            1           1          0           0                                                                                                      
          1118 00 01                                           NOP                                                                                                            1           1          0           0                                                                                                      
          1120 00 01                                           NOP                                                                                                            1         614          0           0                                                                                                      
          1122 00 01                                           NOP                                                                                                            1           1          0         613                                                                                                                                                                                                            
          1124 00 01                                           NOP                                                                                                            1           1          0           0                                                                                                      
          1126 7e a2 00 00 00 00 00 37                         LDA r14, [p0], #4; NOP; NOP                                                                                    1           1          0           0                                                                                                      
          1134 00 01                                           NOP                                                                                                            1           1          0           0                                                                                                      
          1136 00 01                                           NOP                                                                                                            1           1          0           0                                                                                                      
          1138 00 01                                           NOP                                                                                                            1           1          0           0                                                                                                      
          1140 00 01                                           NOP                                                                                                            1           1          0           0                                                                                                      
          1142 00 01                                           NOP                                                                                                            1           1          0           0                                                                                                      
          1144 00 01                                           NOP                                                                                                            1           1          0           0                                                                                                      
          1146 00 01                                           NOP                                                                                                            1           1          0           0                                                                                                      
          1148 3a ea e0 03                                     NOP; GE r14, r10, r14                                                                                          1           1          0           0                                                                                                      
          1152 80 00 00 91 c0 2d 07 f7                         NOP; BNEZ r14,#720; NOP                                                                                        1           1          0           0                                                                                                      
          1160 00 01                                           NOP                                                                                                            1           1          0           0                                                                                                      
          1162 00 01                                           NOP                                                                                                            1           1          0           0                                                                                                      
          1164 00 01                                           NOP                                                                                                            1           1          0           0                                                                                                      
          1166 00 01                                           NOP                                                                                                            1           1          0           0                                                                                                      
          1168 00 01                                           NOP                                                                                                            1           1          0           0                                                                                                      
          1170 80 00 00 c7 eb fd e7 f7                         NOP; LDA.SPIL r10, [sp, #-20]; NOP                                                                             1           1          0           0                                                                                                      
          1178 80 00 00 c7 ef fd 67 f7                         NOP; LDA.SPIL r11, [sp, #-24]; NOP                                                                             1           1          0           0                                                                                                      
          1186 80 00 00 c7 bb fe e7 f7                         NOP; LDA.SPIL p6, [sp, #-12]; NOP                                                                              1           1          0           0                                                                                                      
          1194 80 00 00 c7 bf fe 67 f7                         NOP; LDA.SPIL p7, [sp, #-16]; NOP                                                                              1           1          0           0                                                                                                      
          1202 80 00 00 c7 d3 ff 67 f7                         NOP; LDA.SPIL r4, [sp, #-8]; NOP                                                                               1           1          0           0                                                                                                      
          1210 58 ff f8 03                                     NOP; LDB lr, [sp, #-4]                                                                                         1           1          0           0                                                                                                      
          1214 00 01                                           NOP                                                                                                            1           1          0           0                                                                                                      
          1216 00 01                                           NOP                                                                                                            1           1          0           0                                                                                                      
          1218 00 01                                           NOP                                                                                                            1           1          0           0                                                                                                      
          1220 00 01                                           NOP                                                                                                            1           1          0           0                                                                                                      
          1222 7c 82 00 03                                     NOP; MOV.s12 m0, #-224                                                                                         1           1          0           0                                                                                                      
          1226 08 90 00 00 00 00 00 37                         PADDA [sp], m0; NOP; NOP                                                                                       1           1          0           0                                                                                                      
          1234 40 03 00 03                                     NOP; MOV.s12 r0, #0                                                                                            1           1          0           0                                                                                                      
          1238 00 01                                           NOP                                                                                                            1           1          0           0                                                                                                      
          1240 01 01                                           RET lr                                                                                                         1           1          0           0                                                                                                      
          1242 00 01                                           NOP                                                                                                            1           1          0           0                                                                                                      
          1244 00 01                                           NOP                                                                                                            1           1          0           0                                                                                                      
          1246 00 01                                           NOP                                                                                                            1           1          0           0                                                                                                      
          1248 00 00 00 03                                     NOP; NOP                                                                                                       1           1          0           0                                                                                                      
          1252 00 00 00 00 00 00 00 00 00 00 00 1f             NOP; NOP; NOP; NOP; NOP                                                                                        1           1          0           0                                                                                                      
          1264 80 00 00 a0 00 44 07 f7                         NOP; J #1088; NOP                                                                                              0           0          0           0
          1272 00 01                                           NOP                                                                                                            0           0          0           0
          1274 00 01                                           NOP                                                                                                            0           0          0           0
          1276 00 01                                           NOP                                                                                                            0           0          0           0
          1278 00 01                                           NOP                                                                                                            0           0          0           0
          1280 80 00 00 e8 ff d4 47 f7                         NOP; ST.SPIL p0, [sp, #-44]; NOP                                                                               0           0          0           0

Function detail: gemm _Z4gemmP12input_windowIaES1_P13output_windowIiE

    Low PC                :       1296
    High PC               :       2311
    Size in program memory:       1016
    Stack frame size      :          0
    Cycle-count           :                   96 ( 0.01%)
    Instruction-count     :                   96 (25.95%)
    Instruction Coverage  :                  100.00%

    PC         Instruction                                     Assembly                                                                                               Exe-count      Cycles User Count Wait states Relative cycle use within function                 Relative cycle use in simulation                   Relative wait state use within function            Relative wait state use in simulation             
    ---------- ----------------------------------------------- ---------------------------------------------------------------------------------------------------- ----------- ----------- ---------- ----------- -------------------------------------------------- -------------------------------------------------- -------------------------------------------------- --------------------------------------------------
          1296 3d 00 18 c0 20 00 01 00 82 06 f0 5f             MOV.s10 r5, #0; MOV.s9 r8, #1; NOP; MOV.s12 cs0, #8; MOV ch1, p7                                               1           1          0           0 **************************************************                                                   
          1308 33 40 07 52 85 01 00 77                         MOV.s10 m3, #256; ADD.NRM s0, r8, #0; MOV cl2, r5                                                              1           1          0           0 **************************************************                                                   
          1316 30 20 00 00 0f d0 44 06 12 44 00 3f             MOV.s10 m0, #128; NOP; MOV.s12 m2, #-96; MOV.u20 cl1, #541696; NOP                                             1           1          0           0 **************************************************                                                   
          1328 68 c0 00 00 0f c0 42 00 12 4c c8 3f             LDA p0, [p0, cs0]; NOP; MOV.s12 m1, #-128; MOVT.s12 cl1, #-824; NOP                                            1           1          0           0 **************************************************                                                   
          1340 6b c0 40 00 10 00 00 04 02 02 04 3f             LDA p3, [p1, cs0]; NOP; NOP; MOV.u20 cl0, #516; NOP                                                            1           1          0           0 **************************************************                                                   
          1352 6a c0 86 e0 80 00 00 77                         LDA p2, [p2, cs0]; NOP; MOV ch2, p6                                                                            1           1          0           0 **************************************************                                                   
          1360 80 00 00 01 20 00 17 f7                         NOP; MOVT.s12 cl0, #1; NOP                                                                                     1           1          0           0 **************************************************                                                   
          1368 80 00 00 43 02 4d 87 f7                         NOP; MOV.u20 ch0, #58584; NOP                                                                                  1           1          0           0 **************************************************                                                   
          1376 00 01                                           NOP                                                                                                            1           1          0           0 **************************************************                                                   
          1378 00 01                                           NOP                                                                                                            1           1          0           0 **************************************************                                                   
          1380 00 01                                           NOP                                                                                                            1           1          0           0 **************************************************                                                   
          1382 0a a8 06 8d c0 00 00 77                         VLDA wr2, [p0], #128; NOP; MOV r7, p0                                                                          1           1          0           0 **************************************************                                                   
          1390 1a a8 c6 be 44 40 ee 77                         VLDA wd0, [p3], #128; ADD r7, r7, #32; MOV r9, p3                                                              1           1          0           0 **************************************************                                                   
          1398 08 80 06 8b c4 41 30 77                         PADDA [p0], m0; ADD r8, r9, #32; MOV p7, p0                                                                    1           1          0           0 **************************************************                                                   
          1406 0e a3 c0 00 08 04 34 88 22 47 8b 5f             VLDA wr3, [p7], #32;NOP; PADDS [p2], m3; ADD r9, r8, #32; MOV p5, r8                                           1           1          0           0 **************************************************                                                   
          1418 02 a9 46 ab 84 41 30 77                         VLDA wr0, [p5], #128; ADD r8, r9, #32; MOV p6, p2                                                              1           1          0           0 **************************************************                                                   
          1426 16 a3 c7 7a 54 02 1a 77                         VLDA wc1, [p7], #32; PADDS [p2], m3; MOV p1, r7                                                                1           1          0           0 **************************************************                                                   
          1434 1a a8 c6 ab 00 00 00 77                         VLDA wd0, [p3], #128; NOP; MOV p4, p2                                                                          1           1          0           0 **************************************************                                                   
          1442 12 a2 41 54 b2 2b 60 57                         VLDA wc0, [p1], #32;VLDB wr0, [p5], #128; VMOV wc1, wr2                                                        1           1          0           0 **************************************************                                                   
          1450 00 00 01 a3 71 00 3e b6 06 b5 11 ef             NOP; NOP; MOV r7, p0; NOP; VMUL.48 bm3, yd.s8, r5, c2, r5, wc1.s8, #0, c1, c0                                  1           1          0           0 **************************************************                                                   
          1462 12 a2 51 03 b8 00 00 37                         VLDA wc0, [p1], #32; NOP; ADD r7, r7, #32                                                                      1           1          0           0 **************************************************                                                   
          1470 1a a8 e4 76 40 00 00 77                         VLDA wd0, [p3], #128; NOP; VMOV wc0, wr3                                                                       1           1          0           0 **************************************************                                                   
          1478 16 a3 c1 54 b0 00 00 40 00 00 00 d6 c0 d6 a2 20 VLDA wc1, [p7], #32;VLDB wr0, [p5], #128;NOP; NOP; NOP; NOP; VMUL.48 bm0, ya.s8, r5, c2, r5, wc1.s8,           1           1          0           0 **************************************************                                                   
          1494 80 00 05 6c 0d 6a 21 47                         NOP; NOP; VMUL.48 bm1, yd.s8, r5, c2, r5, wc0.s8, #0, c1, c0                                                   1           1          0           0 **************************************************                                                   
          1502 1a a8 e0 00 00 00 06 b6 06 b5 10 4f             VLDA wd0, [p3], #128; NOP; NOP; NOP; VMUL.48 bm2, ya.s8, r5, c2, r5, wc0.s8, #0, c1, c0                        1           1          0           0 **************************************************                                                   
          1514 12 a2 51 04 48 f3 5a c6 06 b5 10 ef             VLDA wc0, [p1], #32;NOP; ADD r9, r8, #32; MOV p3, r9; VMAC.48 bm3, yd.s8, r5, c2, r5, wc0.s8, #0, c1           1           1          0           0 **************************************************                                                   
          1526 80 00 05 8c 0d 6a 20 07                         NOP; NOP; VMAC.48 bm0, ya.s8, r5, c2, r5, wc0.s8, #0, c1, c0                                                   1           1          0           0 **************************************************                                                   
          1534 16 a3 c1 54 b4 02 11 40 00 00 00 d8 c0 d6 a2 34 VLDA wc1, [p7], #32;VLDB wr0, [p5], #128;PADDS [p1], m2; NOP; NOP; NOP; VMAC.48 bm1, yd.s8, r5, c2,            1           1          0           0 **************************************************                                                   
          1550 1a a8 e0 00 00 00 06 c6 06 b5 11 4f             VLDA wd0, [p3], #128; NOP; NOP; NOP; VMAC.48 bm2, ya.s8, r5, c2, r5, wc1.s8, #0, c1, c0                        1           1          0           0 **************************************************                                                   
          1562 08 85 c0 00 10 00 00 47 8b 40 00 d8 c0 d6 a2 1c PADDA [p7], m2; NOP; NOP; NOP; MOV p5, r8; NOP; VMAC.48 bm3, yd.s8, r5, c2, r5, wc0.s8, #0, c1, c0             1           1          0           0 **************************************************                                                   
          1578 02 a9 45 54 10 00 00 40 00 00 00 d8 c0 d6 a2 34 VLDA wr0, [p5], #128;VLDB wr2, [p0], #128;NOP; NOP; NOP; NOP; VMAC.48 bm1, yd.s8, r5, c2, r5, wc1.s8           1           1          0           0 **************************************************                                                   
          1594 80 00 05 8c 0d 6a 20 07                         NOP; NOP; VMAC.48 bm0, ya.s8, r5, c2, r5, wc0.s8, #0, c1, c0                                                   1           1          0           0 **************************************************                                                   
          1602 1a a8 e0 00 00 00 06 c6 06 b5 10 ef             VLDA wd0, [p3], #128; NOP; NOP; NOP; VMAC.48 bm3, yd.s8, r5, c2, r5, wc0.s8, #0, c1, c0                        1           1          0           0 **************************************************                                                   
          1614 16 a3 e0 00 00 00 06 c6 06 b5 11 4f             VLDA wc1, [p7], #32; NOP; NOP; NOP; VMAC.48 bm2, ya.s8, r5, c2, r5, wc1.s8, #0, c1, c0                         1           1          0           0 **************************************************                                                   
          1626 12 a2 41 54 b0 00 00 40 00 00 00 d8 c0 d6 a2 34 VLDA wc0, [p1], #32;VLDB wr0, [p5], #128;NOP; NOP; NOP; NOP; VMAC.48 bm1, yd.s8, r5, c2, r5, wc1.s8,           1           1          0           0 **************************************************                                                   
          1642 00 00 09 1d 91 00 3e c6 06 b5 10 0f             NOP; NOP; VMOV wc0, wr3; NOP; VMAC.48 bm0, ya.s8, r5, c2, r5, wc0.s8, #0, c1, c0                               1           1          0           0 **************************************************                                                   
          1654 12 a2 40 00 10 00 00 64 56 c0 00 d8 c0 d6 a2 28 VLDA wc0, [p1], #32;NOP; NOP; NOP; VMOV wc1, wr2; NOP; VMAC.48 bm2, ya.s8, r5, c2, r5, wc1.s8, #0, c           1           1          0           0 **************************************************                                                   
          1670 1a a8 e0 00 00 00 06 b6 06 b5 11 ef             VLDA wd0, [p3], #128; NOP; NOP; NOP; VMUL.48 bm3, yd.s8, r5, c2, r5, wc1.s8, #0, c1, c0                        1           1          0           0 **************************************************                                                   
          1682 16 a3 c1 54 be 0e 8e 40 00 00 00 d6 c0 d6 a2 14 VLDA wc1, [p7], #32;VLDB wr0, [p5], #128;VST.48.SRSL aml3, s0, [p6], #32;NOP; NOP; NOP; VMUL.48 bm1,           1           1          0           0 **************************************************                                                   
          1698 f0 f4 75 6c 0d 6a 22 07                         NOP; VST.48.SRSL amh3, s0, [p6], #32; VMUL.48 bm0, ya.s8, r5, c2, r5, wc1.s8, #0, c1, c0                       1           1          0           0 **************************************************                                                   
          1706 1a a8 fc 0d 18 00 06 b6 06 b5 10 4f             VLDA wd0, [p3], #128; VST.48.SRSL aml1, s0, [p4], #32;NOP; NOP; VMUL.48 bm2, ya.s8, r5, c2, r5, wc0.           1           1          0           0 **************************************************                                                   
          1718 12 a2 40 00 1e 16 8c 47 9a c0 00 d8 c0 d6 a2 1c VLDA wc0, [p1], #32;NOP; VST.48.SRSL amh1, s0, [p4], #32;NOP; MOV p3, r9; NOP; VMAC.48 bm3, yd.s8, r           1           1          0           0 **************************************************                                                   
          1734 08 82 c0 00 1e 02 8e 47 7a 40 00 d8 c0 d6 a2 00 PADDA [p3], m1; NOP; VST.48.SRSL aml0, s0, [p6], #32;NOP; MOV p1, r7; NOP; VMAC.48 bm0, ya.s8, r5, c           1           1          0           0 **************************************************                                                   
          1750 16 a3 c1 54 be 0a 8c 40 00 00 00 d8 c0 d6 a2 34 VLDA wc1, [p7], #32;VLDB wr0, [p5], #128;VST.48.SRSL aml2, s0, [p4], #32;NOP; NOP; NOP; VMAC.48 bm1,           1           1          0           0 **************************************************                                                   
          1766 1a a8 c0 00 1e 12 8e 46 be 40 00 d8 c0 d6 a2 28 VLDA wd0, [p3], #128;NOP; VST.48.SRSL amh0, s0, [p6], #32;NOP; MOV r9, p3; NOP; VMAC.48 bm2, ya.s8,            1           1          0           0 **************************************************                                                   
          1782 00 00 06 8b ce 1a 8c 44 13 00 00 58 c0 d6 a2 34 NOP;NOP; VST.48.SRSL amh2, s0, [p4], #32;ADD r8, r9, #32; MOV p7, p0; NOP; VMAC.48 bm1, yd.s8, r5, c           1           1          0           0 **************************************************                                                   
          1798 0e a3 d1 04 48 f1 6a c6 06 b5 10 ef             VLDA wr3, [p7], #32;NOP; ADD r9, r8, #32; MOV p5, r8; VMAC.48 bm3, yd.s8, r5, c2, r5, wc0.s8, #0, c1           1           1          0           0 **************************************************                                                   
          1810 02 a9 40 00 10 00 00 44 13 00 00 58 c0 d6 a2 00 VLDA wr0, [p5], #128;NOP; NOP; ADD r8, r9, #32;NOP; NOP; VMAC.48 bm0, ya.s8, r5, c2, r5, wc0.s8, #0,           1           1          0           0 **************************************************                                                   
          1826 1a a8 e0 00 00 00 06 c6 06 b5 10 ef             VLDA wd0, [p3], #128; NOP; NOP; NOP; VMAC.48 bm3, yd.s8, r5, c2, r5, wc0.s8, #0, c1, c0                        1           1          0           0 **************************************************                                                   
          1838 16 a3 e0 00 00 00 06 c6 06 b5 11 4f             VLDA wc1, [p7], #32; NOP; NOP; NOP; VMAC.48 bm2, ya.s8, r5, c2, r5, wc1.s8, #0, c1, c0                         1           1          0           0 **************************************************                                                   
          1850 12 a2 41 54 b0 00 00 40 00 00 00 d8 c0 d6 a2 34 VLDA wc0, [p1], #32;VLDB wr0, [p5], #128;NOP; NOP; NOP; NOP; VMAC.48 bm1, yd.s8, r5, c2, r5, wc1.s8,           1           1          0           0 **************************************************                                                   
          1866 80 00 05 8c 0d 6a 20 07                         NOP; NOP; VMAC.48 bm0, ya.s8, r5, c2, r5, wc0.s8, #0, c1, c0                                                   1           1          0           0 **************************************************                                                   
          1874 12 a2 40 00 10 00 00 64 56 c0 00 d8 c0 d6 a2 28 VLDA wc0, [p1], #32;NOP; NOP; NOP; VMOV wc1, wr2; NOP; VMAC.48 bm2, ya.s8, r5, c2, r5, wc1.s8, #0, c           1           1          0           0 **************************************************                                                   
          1890 1a a8 c0 00 10 00 00 64 76 40 00 d6 c0 d6 a2 3c VLDA wd0, [p3], #128;NOP; NOP; NOP; VMOV wc0, wr3; NOP; VMUL.48 bm3, yd.s8, r5, c2, r5, wc1.s8, #0,            1           1          0           0 **************************************************                                                   
          1906 16 a3 c1 54 be 0e 8e 40 00 00 00 d6 c0 d6 a2 14 VLDA wc1, [p7], #32;VLDB wr0, [p5], #128;VST.48.SRSL aml3, s0, [p6], #32;NOP; NOP; NOP; VMUL.48 bm1,           1           1          0           0 **************************************************                                                   
          1922 f0 f4 75 6c 0d 6a 22 07                         NOP; VST.48.SRSL amh3, s0, [p6], #32; VMUL.48 bm0, ya.s8, r5, c2, r5, wc1.s8, #0, c1, c0                       1           1          0           0 **************************************************                                                   
          1930 1a a8 fc 0d 18 00 06 b6 06 b5 10 4f             VLDA wd0, [p3], #128; VST.48.SRSL aml1, s0, [p4], #32;NOP; NOP; VMUL.48 bm2, ya.s8, r5, c2, r5, wc0.           1           1          0           0 **************************************************                                                   
          1942 12 a2 40 00 1e 16 8c 47 9a c0 00 d8 c0 d6 a2 1c VLDA wc0, [p1], #32;NOP; VST.48.SRSL amh1, s0, [p4], #32;NOP; MOV p3, r9; NOP; VMAC.48 bm3, yd.s8, r           1           1          0           0 **************************************************                                                   
          1958 f0 14 75 8c 0d 6a 20 07                         NOP; VST.48.SRSL aml0, s0, [p6], #32; VMAC.48 bm0, ya.s8, r5, c2, r5, wc0.s8, #0, c1, c0                       1           1          0           0 **************************************************                                                   
          1966 16 a3 c4 42 3e 0a 8c 40 00 00 00 d8 c0 d6 a2 34 VLDA wc1, [p7], #32;PADDB [p1], m2; VST.48.SRSL aml2, s0, [p4], #32;NOP; NOP; NOP; VMAC.48 bm1, yd.s           1           1          0           0 **************************************************                                                   
          1982 02 a9 7c 25 1c 00 06 c6 06 b5 11 4f             VLDA wr0, [p5], #128; VST.48.SRSL amh0, s0, [p6], #32;NOP; NOP; VMAC.48 bm2, ya.s8, r5, c2, r5, wc1.           1           1          0           0 **************************************************                                                   
          1994 1a a8 c0 00 1e 1a 8c 46 ab 80 00 d8 c0 d6 a2 1c VLDA wd0, [p3], #128;NOP; VST.48.SRSL amh2, s0, [p4], #32;NOP; MOV p6, p2; NOP; VMAC.48 bm3, yd.s8,            1           1          0           0 **************************************************                                                   
          2010 08 86 84 42 f0 00 00 47 8b 40 00 d8 c0 d6 a2 34 PADDA [p2], m3; PADDB [p7], m2; NOP; NOP; MOV p5, r8; NOP; VMAC.48 bm1, yd.s8, r5, c2, r5, wc1.s8, #           1           1          0           0 **************************************************                                                   
          2026 02 a9 60 00 00 00 06 c6 06 b5 10 0f             VLDA wr0, [p5], #128; NOP; NOP; NOP; VMAC.48 bm0, ya.s8, r5, c2, r5, wc0.s8, #0, c1, c0                        1           1          0           0 **************************************************                                                   
          2038 1a a8 c0 00 10 00 00 46 ab 00 00 d8 c0 d6 a2 1c VLDA wd0, [p3], #128;NOP; NOP; NOP; MOV p4, p2; NOP; VMAC.48 bm3, yd.s8, r5, c2, r5, wc0.s8, #0, c1,           1           1          0           0 **************************************************                                                   
          2054 16 a3 e0 00 00 00 06 c6 06 b5 11 4f             VLDA wc1, [p7], #32; NOP; NOP; NOP; VMAC.48 bm2, ya.s8, r5, c2, r5, wc1.s8, #0, c1, c0                         1           1          0           0 **************************************************                                                   
          2066 12 a2 41 54 b0 00 00 40 00 00 00 d8 c0 d6 a2 34 VLDA wc0, [p1], #32;VLDB wr0, [p5], #128;NOP; NOP; NOP; NOP; VMAC.48 bm1, yd.s8, r5, c2, r5, wc1.s8,           1           1          0           0 **************************************************                                                   
          2082 00 00 09 1d 91 00 3e c6 06 b5 10 0f             NOP; NOP; VMOV wc0, wr3; NOP; VMAC.48 bm0, ya.s8, r5, c2, r5, wc0.s8, #0, c1, c0                               1           1          0           0 **************************************************                                                   
          2094 12 a2 40 00 10 00 00 64 56 c0 00 d8 c0 d6 a2 28 VLDA wc0, [p1], #32;NOP; NOP; NOP; VMOV wc1, wr2; NOP; VMAC.48 bm2, ya.s8, r5, c2, r5, wc1.s8, #0, c           1           1          0           0 **************************************************                                                   
          2110 1a a8 e0 00 00 00 06 b6 06 b5 11 ef             VLDA wd0, [p3], #128; NOP; NOP; NOP; VMUL.48 bm3, yd.s8, r5, c2, r5, wc1.s8, #0, c1, c0                        1           1          0           0 **************************************************                                                   
          2122 16 a3 c1 54 be 0e 8e 40 00 00 00 d6 c0 d6 a2 14 VLDA wc1, [p7], #32;VLDB wr0, [p5], #128;VST.48.SRSL aml3, s0, [p6], #32;NOP; NOP; NOP; VMUL.48 bm1,           1           1          0           0 **************************************************                                                   
          2138 f0 f4 75 6c 0d 6a 22 07                         NOP; VST.48.SRSL amh3, s0, [p6], #32; VMUL.48 bm0, ya.s8, r5, c2, r5, wc1.s8, #0, c1, c0                       1           1          0           0 **************************************************                                                   
          2146 1a a8 fc 0d 18 00 06 b6 06 b5 10 4f             VLDA wd0, [p3], #128; VST.48.SRSL aml1, s0, [p4], #32;NOP; NOP; VMUL.48 bm2, ya.s8, r5, c2, r5, wc0.           1           1          0           0 **************************************************                                                   
          2158 12 a2 7c 2d 18 00 06 c6 06 b5 10 ef             VLDA wc0, [p1], #32; VST.48.SRSL amh1, s0, [p4], #32;NOP; NOP; VMAC.48 bm3, yd.s8, r5, c2, r5, wc0.s           1           1          0           0 **************************************************                                                   
          2170 f0 14 75 8c 0d 6a 20 07                         NOP; VST.48.SRSL aml0, s0, [p6], #32; VMAC.48 bm0, ya.s8, r5, c2, r5, wc0.s8, #0, c1, c0                       1           1          0           0 **************************************************                                                   
          2178 16 a3 c1 54 be 0a 8c 40 00 00 00 d8 c0 d6 a2 34 VLDA wc1, [p7], #32;VLDB wr0, [p5], #128;VST.48.SRSL aml2, s0, [p4], #32;NOP; NOP; NOP; VMAC.48 bm1,           1           1          0           0 **************************************************                                                   
          2194 f0 94 75 8c 0d 6a 22 87                         NOP; VST.48.SRSL amh0, s0, [p6], #32; VMAC.48 bm2, ya.s8, r5, c2, r5, wc1.s8, #0, c1, c0                       1           1          0           0 **************************************************                                                   
          2202 f0 d4 65 8c 0d 6a 23 47                         NOP; VST.48.SRSL amh2, s0, [p4], #32; VMAC.48 bm1, yd.s8, r5, c2, r5, wc1.s8, #0, c1, c0                       1           1          0           0 **************************************************                                                   
          2210 80 00 05 8c 0d 6a 21 c7                         NOP; NOP; VMAC.48 bm3, yd.s8, r5, c2, r5, wc0.s8, #0, c1, c0                                                   1           1          0           0 **************************************************                                                   
          2218 80 00 05 8c 0d 6a 20 07                         NOP; NOP; VMAC.48 bm0, ya.s8, r5, c2, r5, wc0.s8, #0, c1, c0                                                   1           1          0           0 **************************************************                                                   
          2226 80 00 05 8c 0d 6a 21 c7                         NOP; NOP; VMAC.48 bm3, yd.s8, r5, c2, r5, wc0.s8, #0, c1, c0                                                   1           1          0           0 **************************************************                                                   
          2234 80 00 05 8c 0d 6a 22 87                         NOP; NOP; VMAC.48 bm2, ya.s8, r5, c2, r5, wc1.s8, #0, c1, c0                                                   1           1          0           0 **************************************************                                                   
          2242 80 00 05 8c 0d 6a 23 47                         NOP; NOP; VMAC.48 bm1, yd.s8, r5, c2, r5, wc1.s8, #0, c1, c0                                                   1           1          0           0 **************************************************                                                   
          2250 80 00 05 8c 0d 6a 20 07                         NOP; NOP; VMAC.48 bm0, ya.s8, r5, c2, r5, wc0.s8, #0, c1, c0                                                   1           1          0           0 **************************************************                                                   
          2258 00 00 01 06 f1 00 3e c6 06 b5 11 4f             NOP; NOP; MOV p7, ch1; NOP; VMAC.48 bm2, ya.s8, r5, c2, r5, wc1.s8, #0, c1, c0                                 1           1          0           0 **************************************************                                                   
          2270 00 01                                           NOP                                                                                                            1           1          0           0 **************************************************                                                   
          2272 f0 74 70 03                                     NOP; VST.48.SRSL aml3, s0, [p6], #32                                                                           1           1          0           0 **************************************************                                                   
          2276 f0 f4 70 03                                     NOP; VST.48.SRSL amh3, s0, [p6], #32                                                                           1           1          0           0 **************************************************                                                   
          2280 f0 34 60 03                                     NOP; VST.48.SRSL aml1, s0, [p4], #32                                                                           1           1          0           0 **************************************************                                                   
          2284 f0 b4 60 03                                     NOP; VST.48.SRSL amh1, s0, [p4], #32                                                                           1           1          0           0 **************************************************                                                   
          2288 00 00 01 80 07 01 47 37                         NOP; VST.48.SRSL aml0, s0, [p6], #32;RET lr                                                                    1           1          0           0 **************************************************                                                   
          2296 f0 54 60 03                                     NOP; VST.48.SRSL aml2, s0, [p4], #32                                                                           1           1          0           0 **************************************************                                                   
          2300 f0 94 70 03                                     NOP; VST.48.SRSL amh0, s0, [p6], #32                                                                           1           1          0           0 **************************************************                                                   
          2304 f0 d4 60 03                                     NOP; VST.48.SRSL amh2, s0, [p4], #32                                                                           1           1          0           0 **************************************************                                                   
          2308 0a e5                                           MOV p6, ch2                                                                                                    1           1          0           0 **************************************************                                                   
          2310 00 01                                           NOP                                                                                                            1           1          0           0 **************************************************                                                   

Function detail: _fini _fini

    Low PC                :       2320
    High PC               :       2535
    Size in program memory:        216
    Stack frame size      :         32
    Cycle-count           :                   23 ( 0.00%)
    Instruction-count     :                   23 ( 6.22%)
    Instruction Coverage  :                   51.11%

    PC         Instruction                                     Assembly                                                                                               Exe-count      Cycles User Count Wait states Relative cycle use within function                 Relative cycle use in simulation                   Relative wait state use within function            Relative wait state use in simulation             
    ---------- ----------------------------------------------- ---------------------------------------------------------------------------------------------------- ----------- ----------- ---------- ----------- -------------------------------------------------- -------------------------------------------------- -------------------------------------------------- --------------------------------------------------
          2320 40 82 00 40 c0 00 07 f7                         MOV.s12 m0, #32; MOV.u20 r0, #0; NOP                                                                           1           1          0           0 **************************************************                                                   
          2328 08 90 00 00 10 00 00 04 0f 00 00 3f             PADDA [sp], m0; NOP; NOP; MOV.u20 r12, #0; NOP                                                                 1           1          0           0 **************************************************                                                   
          2340 00 00 06 fa 07 18 18 77                         NOP; EQ r12, r0, r12; MOV p0, p7                                                                               1           1          0           0 **************************************************                                                   
          2348 80 00 00 91 80 9b 07 f7                         NOP; BNEZ r12,#2480; NOP                                                                                       1           1          0           0 **************************************************                                                   
          2356 af 7f f0 40 bc 00 07 f7                         ST r11, [sp, #-8]; MOV.u20 p7, #0; NOP                                                                         1           1          0           0 **************************************************                                                   
          2364 80 00 00 e8 ff fc 47 f7                         NOP; ST.SPIL p0, [sp, #-4]; NOP                                                                                1           1          0           0 **************************************************                                                   
          2372 80 00 00 f4 ff f4 47 f7                         NOP; ST.SPIL r4, [sp, #-12]; NOP                                                                               1           1          0           0 **************************************************                                                   
          2380 80 00 00 c8 ff f0 47 f7                         NOP; ST.SPIL lr, [sp, #-16]; NOP                                                                               1           1          0           0 **************************************************                                                   
          2388 00 00 00 03                                     NOP; NOP                                                                                                       1           1          0           0 **************************************************                                                   
          2392 80 00 00 40 d0 00 07 f7                         NOP; MOV.u20 r4, #0; NOP                                                                                       0           0          0           0
          2400 40 a3 c0 00 00 00 00 37                         LDA cb0, [p7], #4; NOP; NOP                                                                                    0           0          0           0
          2408 00 01                                           NOP                                                                                                            0           0          0           0
          2410 00 01                                           NOP                                                                                                            0           0          0           0
          2412 00 01                                           NOP                                                                                                            0           0          0           0
          2414 00 01                                           NOP                                                                                                            0           0          0           0
          2416 00 01                                           NOP                                                                                                            0           0          0           0
          2418 00 01                                           NOP                                                                                                            0           0          0           0
          2420 00 01                                           NOP                                                                                                            0           0          0           0
          2422 00 41                                           JAL cb0                                                                                                        0           0          0           0
          2424 bf b5                                           MOV r11, p7                                                                                                    0           0          0           0
          2426 00 01                                           NOP                                                                                                            0           0          0           0
          2428 00 01                                           NOP                                                                                                            0           0          0           0
          2430 00 01                                           NOP                                                                                                            0           0          0           0
          2432 00 00 00 00 00 00 00 00 00 00 00 00 00 00 00 02 NOP; NOP; NOP; NOP; NOP; NOP; NOP                                                                              0           0          0           0
          2448 39 b4 c0 03                                     NOP; NE r12, r4, r11                                                                                           0           0          0           0
          2452 80 00 00 91 80 96 07 f7                         NOP; BNEZ r12,#2400; NOP                                                                                       0           0          0           0
          2460 00 01                                           NOP                                                                                                            0           0          0           0
          2462 00 01                                           NOP                                                                                                            0           0          0           0
          2464 00 01                                           NOP                                                                                                            0           0          0           0
          2466 00 01                                           NOP                                                                                                            0           0          0           0
          2468 00 00 00 00 00 00 00 00 00 00 00 1f             NOP; NOP; NOP; NOP; NOP                                                                                        0           0          0           0
          2480 58 ff 38 03                                     NOP; LDB lr, [sp, #-16]                                                                                        1           1          0           0 **************************************************                                                   
          2484 80 00 00 c7 ef ff 67 f7                         NOP; LDA.SPIL r11, [sp, #-8]; NOP                                                                              1           1          0           0 **************************************************                                                   
          2492 80 00 00 c7 d3 fe e7 f7                         NOP; LDA.SPIL r4, [sp, #-12]; NOP                                                                              1           1          0           0 **************************************************                                                   
          2500 80 00 00 c7 bf ff e7 f7                         NOP; LDA.SPIL p7, [sp, #-4]; NOP                                                                               1           1          0           0 **************************************************                                                   
          2508 00 01                                           NOP                                                                                                            1           1          0           0 **************************************************                                                   
          2510 00 01                                           NOP                                                                                                            1           1          0           0 **************************************************                                                   
          2512 00 01                                           NOP                                                                                                            1           1          0           0 **************************************************                                                   
          2514 00 01                                           NOP                                                                                                            1           1          0           0 **************************************************                                                   
          2516 01 01                                           RET lr                                                                                                         1           1          0           0 **************************************************                                                   
          2518 7f 82 00 03                                     NOP; MOV.s12 m0, #-32                                                                                          1           1          0           0 **************************************************                                                   
          2522 08 90 00 00 00 00 00 37                         PADDA [sp], m0; NOP; NOP                                                                                       1           1          0           0 **************************************************                                                   
          2530 00 01                                           NOP                                                                                                            1           1          0           0 **************************************************                                                   
          2532 00 01                                           NOP                                                                                                            1           1          0           0 **************************************************                                                   
          2534 00 01                                           NOP                                                                                                            1           1          0           0 **************************************************                                                   

Function detail: _main_init _main_init

    Low PC                :          0
    High PC               :        273
    Size in program memory:        274
    Stack frame size      :          0
    Cycle-count           :                   37 ( 0.00%)
    Instruction-count     :                   37 (10.00%)
    Instruction Coverage  :                   50.68%

    PC         Instruction                                     Assembly                                                                                               Exe-count      Cycles User Count Wait states Relative cycle use within function                 Relative cycle use in simulation                   Relative wait state use within function            Relative wait state use in simulation             
    ---------- ----------------------------------------------- ---------------------------------------------------------------------------------------------------- ----------- ----------- ---------- ----------- -------------------------------------------------- -------------------------------------------------- -------------------------------------------------- --------------------------------------------------
             0 4e 66 38 0b                                     NOP; MOV.u20 sp, #238464                                                                                       1           1          0           0 **************************************************                                                   
             4 40 03 c0 03                                     NOP; MOV.s12 r12, #0                                                                                           1           1          0           0 **************************************************                                                   
             8 ca 21                                           MOV mc0, r12                                                                                                   1           1          0           0 **************************************************                                                   
            10 ca 61                                           MOV mc1, r12                                                                                                   1           1          0           0 **************************************************                                                   
            12 40 03 c0 40 e8 00 07 f7                         MOV.s12 r12, #0; MOV.u20 r10, #0; NOP                                                                          1           1          0           0 **************************************************                                                   
            20 80 00 00 40 f4 00 07 f7                         NOP; MOV.u20 r13, #0; NOP                                                                                      1           1          0           0 **************************************************                                                   
            28 cb 21                                           MOV md0, r12                                                                                                   1           1          0           0 **************************************************                                                   
            30 00 00 02 cb 47 1b 58 77                         NOP; EQ r12, r10, r13; MOV md1, r12                                                                            1           1          0           0 **************************************************                                                   
            38 80 00 00 91 80 0a 07 f7                         NOP; BNEZ r12,#160; NOP                                                                                        1           1          0           0 **************************************************                                                   
            46 00 01                                           NOP                                                                                                            1           1          0           0 **************************************************                                                   
            48 00 01                                           NOP                                                                                                            1           1          0           0 **************************************************                                                   
            50 00 01                                           NOP                                                                                                            1           1          0           0 **************************************************                                                   
            52 00 01                                           NOP                                                                                                            1           1          0           0 **************************************************                                                   
            54 00 01                                           NOP                                                                                                            1           1          0           0 **************************************************                                                   
            56 0d 17 98 03                                     NOP; MOV p7, p0                                                                                                0           0          0           0
            60 0e dd 98 03                                     NOP; MOV r11, r6                                                                                               0           0          0           0
            64 00 00 00 00 10 00 00 07 fb bf fc 80 00 00 00 00 NOP; NOP; NOP; NOP; MOV.u20 p6, #1048572; NOP; NOP                                                             0           0          0           0
            80 40 bf 80 00 00 00 00 37                         LDA cb0, [p6], #-4; NOP; NOP                                                                                   0           0          0           0
            88 bb 45                                           MOV r4, p6                                                                                                     0           0          0           0
            90 00 01                                           NOP                                                                                                            0           0          0           0
            92 00 01                                           NOP                                                                                                            0           0          0           0
            94 00 01                                           NOP                                                                                                            0           0          0           0
            96 00 01                                           NOP                                                                                                            0           0          0           0
            98 00 01                                           NOP                                                                                                            0           0          0           0
           100 00 01                                           NOP                                                                                                            0           0          0           0
           102 00 41                                           JAL cb0                                                                                                        0           0          0           0
           104 00 01                                           NOP                                                                                                            0           0          0           0
           106 00 01                                           NOP                                                                                                            0           0          0           0
           108 00 01                                           NOP                                                                                                            0           0          0           0
           110 00 01                                           NOP                                                                                                            0           0          0           0
           112 00 00 00 00 00 00 00 00 00 00 00 00 00 00 00 02 NOP; NOP; NOP; NOP; NOP; NOP; NOP                                                                              0           0          0           0
           128 39 a4 c0 03                                     NOP; NE r12, r4, r10                                                                                           0           0          0           0
           132 80 00 00 91 80 05 07 f7                         NOP; BNEZ r12,#80; NOP                                                                                         0           0          0           0
           140 00 01                                           NOP                                                                                                            0           0          0           0
           142 00 01                                           NOP                                                                                                            0           0          0           0
           144 00 01                                           NOP                                                                                                            0           0          0           0
           146 00 01                                           NOP                                                                                                            0           0          0           0
           148 00 01                                           NOP                                                                                                            0           0          0           0
           150 be 85                                           MOV p0, p7                                                                                                     0           0          0           0
           152 00 00 07 bd 80 00 00 77                         NOP; NOP; MOV r6, r11                                                                                          0           0          0           0
           160 80 00 00 a0 20 12 07 f7                         NOP; JAL #288; NOP                                                                                             1           1          0           0 **************************************************                                                   
           168 00 01                                           NOP                                                                                                            1           1          0           0 **************************************************                                                   
           170 00 01                                           NOP                                                                                                            1           1          0           0 **************************************************                                                   
           172 00 01                                           NOP                                                                                                            1           1          0           0 **************************************************                                                   
           174 00 01                                           NOP                                                                                                            1           1          0           0 **************************************************                                                   
           176 00 00 00 00 00 00 00 00 00 00 00 00 00 00 00 02 NOP; NOP; NOP; NOP; NOP; NOP; NOP                                                                              1           1          0           0 **************************************************                                                   
           192 80 00 00 a0 20 9f 07 f7                         NOP; JAL #2544; NOP                                                                                            1           1          0           0 **************************************************                                                   
           200 80 00 00 40 a0 00 07 f7                         NOP; MOV.u20 p0, #0; NOP                                                                                       1           1          0           0 **************************************************                                                   
           208 00 01                                           NOP                                                                                                            1           1          0           0 **************************************************                                                   
           210 00 01                                           NOP                                                                                                            1           1          0           0 **************************************************                                                   
           212 00 00 00 03                                     NOP; NOP                                                                                                       1           1          0           0 **************************************************                                                   
           216 00 00 00 00 00 00 00 37                         NOP; NOP; NOP                                                                                                  1           1          0           0 **************************************************                                                   
           224 00 01                                           NOP                                                                                                            1           1          0           0 **************************************************                                                   
           226 00 01                                           NOP                                                                                                            1           1          0           0 **************************************************                                                   
           228 00 01                                           NOP                                                                                                            1           1          0           0 **************************************************                                                   
           230 00 01                                           NOP                                                                                                            1           1          0           0 **************************************************                                                   
           232 00 01                                           NOP                                                                                                            1           1          0           0 **************************************************                                                   
           234 00 01                                           NOP                                                                                                            1           1          0           0 **************************************************                                                   
           236 00 01                                           NOP                                                                                                            1           1          0           0 **************************************************                                                   
           238 00 01                                           NOP                                                                                                            1           1          0           0 **************************************************                                                   
           240 04 00 20 03                                     NOP; EVENT #2                                                                                                  1           1          0           0 **************************************************                                                   
           244 00 01                                           NOP                                                                                                            1           1          0           0 **************************************************                                                   
           246 00 01                                           NOP                                                                                                            1           1          0           0 **************************************************                                                   
           248 00 01                                           NOP                                                                                                            0           0          0           0
           250 00 01                                           NOP                                                                                                            0           0          0           0
           252 00 01                                           NOP                                                                                                            0           0          0           0
           254 00 01                                           NOP                                                                                                            0           0          0           0
           256 80 00 00 a0 00 10 07 f7                         NOP; J #256; NOP                                                                                               0           0          0           0
           264 00 01                                           NOP                                                                                                            0           0          0           0
           266 00 01                                           NOP                                                                                                            0           0          0           0
           268 00 01                                           NOP                                                                                                            0           0          0           0
           270 00 01                                           NOP                                                                                                            0           0          0           0
           272 00 01                                           NOP                                                                                                            0           0          0           0

Function detail: __cxa_finalize __cxa_finalize

    Low PC                :       2544
    High PC               :       2691
    Size in program memory:        148
    Stack frame size      :          0
    Cycle-count           :                   43 ( 0.00%)
    Instruction-count     :                   43 (11.62%)
    Instruction Coverage  :                  100.00%

    PC         Instruction                                     Assembly                                                                                               Exe-count      Cycles User Count Wait states Relative cycle use within function                 Relative cycle use in simulation                   Relative wait state use within function            Relative wait state use in simulation             
    ---------- ----------------------------------------------- ---------------------------------------------------------------------------------------------------- ----------- ----------- ---------- ----------- -------------------------------------------------- -------------------------------------------------- -------------------------------------------------- --------------------------------------------------
          2544 00 00 18 ff a8 04 78 04 ea 27 a0 3f             NOP; MOV.s9 r8, #-3; MOV.s12 r12, #8; MOV.u20 p0, #239520; NOP                                                 1           1          0           0 **************************************************                                                   
          2556 80 00 00 4e ba 78 07 f7                         NOP; MOV.u20 p6, #239488; NOP                                                                                  1           1          0           0 **************************************************                                                   
          2564 15 a9                                           MOV r10, lr                                                                                                    1           1          0           0 **************************************************                                                   
          2566 79 d0 00 00 00 00 00 37                         LDA r9, [p0]; NOP; NOP                                                                                         1           1          0           0 **************************************************                                                   
          2574 af 9a 00 03                                     NOP; ST r12, [p0]                                                                                              1           1          0           0 **************************************************                                                   
          2578 00 01                                           NOP                                                                                                            1           1          0           0 **************************************************                                                   
          2580 00 01                                           NOP                                                                                                            1           1          0           0 **************************************************                                                   
          2582 00 01                                           NOP                                                                                                            1           1          0           0 **************************************************                                                   
          2584 00 01                                           NOP                                                                                                            1           1          0           0 **************************************************                                                   
          2586 00 01                                           NOP                                                                                                            1           1          0           0 **************************************************                                                   
          2588 00 01                                           NOP                                                                                                            1           1          0           0 **************************************************                                                   
          2590 27 89 90 03                                     NOP; ADD r9, r9, #-8                                                                                           1           1          0           0 **************************************************                                                   
          2594 00 00 07 98 07 f1 36 77                         NOP; ASHL r11, r9, r8; MOV m0, r9                                                                              1           1          0           0 **************************************************                                                   
          2602 a0 10 30 03                                     NOP; PADDS [p6], m0                                                                                            1           1          0           0 **************************************************                                                   
          2606 00 01                                           NOP                                                                                                            1           1          0           0 **************************************************                                                   
          2608 40 a3 80 00 00 00 00 37                         LDA cb0, [p6], #4; NOP; NOP                                                                                    1           1          0           0 **************************************************                                                   
          2616 68 bb 80 00 00 00 00 37                         LDA p0, [p6], #-12; NOP; NOP                                                                                   1           1          0           0 **************************************************                                                   
          2624 00 01                                           NOP                                                                                                            1           1          0           0 **************************************************                                                   
          2626 00 01                                           NOP                                                                                                            1           1          0           0 **************************************************                                                   
          2628 00 01                                           NOP                                                                                                            1           1          0           0 **************************************************                                                   
          2630 00 01                                           NOP                                                                                                            1           1          0           0 **************************************************                                                   
          2632 00 01                                           NOP                                                                                                            1           1          0           0 **************************************************                                                   
          2634 00 01                                           NOP                                                                                                            1           1          0           0 **************************************************                                                   
          2636 00 41                                           JAL cb0                                                                                                        1           1          0           0 **************************************************                                                   
          2638 00 01                                           NOP                                                                                                            1           1          0           0 **************************************************                                                   
          2640 00 01                                           NOP                                                                                                            1           1          0           0 **************************************************                                                   
          2642 00 01                                           NOP                                                                                                            1           1          0           0 **************************************************                                                   
          2644 0e 1a 18 03                                     NOP; MOV r4, r0                                                                                                1           1          0           0 **************************************************                                                   
          2648 00 00 00 00 00 00 00 37                         NOP; NOP; NOP                                                                                                  1           1          0           0 **************************************************                                                   
          2656 80 00 00 40 40 a3 07 f7                         NOP; MOV.u20 cb0, #2608; NOP                                                                                   1           1          0           0 **************************************************                                                   
          2664 03 8b b0 03                                     NOP; BDEC r11, r11, cb0                                                                                        1           1          0           0 **************************************************                                                   
          2668 d3 05                                           MOV r0, r4                                                                                                     1           1          0           0 **************************************************                                                   
          2670 00 01                                           NOP                                                                                                            1           1          0           0 **************************************************                                                   
          2672 00 01                                           NOP                                                                                                            1           1          0           0 **************************************************                                                   
          2674 00 01                                           NOP                                                                                                            1           1          0           0 **************************************************                                                   
          2676 00 01                                           NOP                                                                                                            1           1          0           0 **************************************************                                                   
          2678 a1 61                                           MOV lr, r10                                                                                                    1           1          0           0 **************************************************                                                   
          2680 01 01                                           RET lr                                                                                                         1           1          0           0 **************************************************                                                   
          2682 00 01                                           NOP                                                                                                            1           1          0           0 **************************************************                                                   
          2684 00 01                                           NOP                                                                                                            1           1          0           0 **************************************************                                                   
          2686 00 01                                           NOP                                                                                                            1           1          0           0 **************************************************                                                   
          2688 00 01                                           NOP                                                                                                            1           1          0           0 **************************************************                                                   
          2690 00 01                                           NOP                                                                                                            1           1          0           0 **************************************************                                                   

